; Function Attrs: nounwind uwtable
define void @gvrender_ellipse(ptr noundef %0, ptr noundef readonly captures(none) %1, i32 noundef %2) local_unnamed_addr #0 {
  %4 = alloca [2 x %struct.pointf_s], align 16
  %5 = getelementptr inbounds nuw i8, ptr %0, i64 120
  %6 = load ptr, ptr %5, align 8, !tbaa !47
  %.not = icmp eq ptr %6, null
  br i1 %.not, label %63, label %7

7:                                                ; preds = %3
  %8 = getelementptr inbounds nuw i8, ptr %6, i64 192
  %9 = load ptr, ptr %8, align 8, !tbaa !126
  %.not11 = icmp eq ptr %9, null
  br i1 %.not11, label %63, label %10

10:                                               ; preds = %7
  %11 = getelementptr inbounds nuw i8, ptr %0, i64 32
  %12 = load ptr, ptr %11, align 8, !tbaa !107
  %13 = getelementptr inbounds nuw i8, ptr %12, i64 168
  %14 = load i32, ptr %13, align 8, !tbaa !108
  %.not12 = icmp eq i32 %14, 0
  br i1 %.not12, label %63, label %15

15:                                               ; preds = %10
  call void @llvm.lifetime.start.p0(i64 32, ptr nonnull %4) #22
  %16 = getelementptr inbounds nuw i8, ptr %1, i64 16
  %17 = load double, ptr %1, align 8
  %18 = getelementptr inbounds nuw i8, ptr %1, i64 8
  %19 = load double, ptr %18, align 8
  %20 = load double, ptr %16, align 8
  %21 = getelementptr inbounds nuw i8, ptr %1, i64 24
  %22 = load double, ptr %21, align 8
  %23 = fadd double %17, %20
  %24 = fmul double %23, 5.000000e-01
  %25 = fadd double %19, %22
  %26 = fmul double %25, 5.000000e-01
  store double %24, ptr %4, align 16
  %27 = getelementptr inbounds nuw i8, ptr %4, i64 8
  store double %26, ptr %27, align 8
  %28 = getelementptr inbounds nuw i8, ptr %4, i64 16
  call void @llvm.memcpy.p0.p0.i64(ptr noundef nonnull align 16 dereferenceable(16) %28, ptr noundef nonnull align 8 dereferenceable(16) %16, i64 16, i1 false), !tbaa.struct !127
  %29 = getelementptr inbounds nuw i8, ptr %0, i64 280
  %30 = load i32, ptr %29, align 8, !tbaa !46
  %31 = and i32 %30, 8192
  %.not13 = icmp eq i32 %31, 0
  br i1 %.not13, label %32, label %gvrender_ptf_A.exit

32:                                               ; preds = %15
  %33 = getelementptr inbounds nuw i8, ptr %0, i64 632
  %.sroa.014.0.copyload.i = load double, ptr %33, align 8, !tbaa !70
  %.sroa.516.0..sroa_idx.i = getelementptr inbounds nuw i8, ptr %0, i64 640
  %.sroa.516.0.copyload.i = load double, ptr %.sroa.516.0..sroa_idx.i, align 8, !tbaa !70
  %34 = getelementptr inbounds nuw i8, ptr %0, i64 480
  %35 = load double, ptr %34, align 8, !tbaa !71
  %36 = getelementptr inbounds nuw i8, ptr %0, i64 648
  %37 = load double, ptr %36, align 8, !tbaa !72
  %38 = fmul double %35, %37
  %39 = getelementptr inbounds nuw i8, ptr %0, i64 656
  %40 = load double, ptr %39, align 8, !tbaa !73
  %41 = fmul double %35, %40
  %42 = getelementptr inbounds nuw i8, ptr %0, i64 488
  %43 = load i32, ptr %42, align 8, !tbaa !74
  %.not.i = icmp eq i32 %43, 0
  br i1 %.not.i, label %.lr.ph40.i, label %.lr.ph.i

.lr.ph.i:                                         ; preds = %32, %.lr.ph.i
  %.03538.i = phi i64 [ %53, %.lr.ph.i ], [ 0, %32 ]
  %44 = getelementptr inbounds nuw %struct.pointf_s, ptr %4, i64 %.03538.i
  %45 = getelementptr inbounds nuw i8, ptr %44, i64 8
  %46 = load double, ptr %45, align 8, !tbaa !75
  %47 = fadd double %.sroa.516.0.copyload.i, %46
  %48 = fneg double %47
  %49 = fmul double %38, %48
  %50 = load double, ptr %44, align 16, !tbaa !76
  %51 = fadd double %.sroa.014.0.copyload.i, %50
  %52 = fmul double %41, %51
  store double %52, ptr %45, align 8, !tbaa !75
  store double %49, ptr %44, align 16, !tbaa !76
  %53 = add nuw nsw i64 %.03538.i, 1
  %exitcond.not.i = icmp eq i64 %53, 2
  br i1 %exitcond.not.i, label %gvrender_ptf_A.exit, label %.lr.ph.i, !llvm.loop !77

.lr.ph40.i:                                       ; preds = %32, %.lr.ph40.i
  %.039.i = phi i64 [ %62, %.lr.ph40.i ], [ 0, %32 ]
  %54 = getelementptr inbounds nuw %struct.pointf_s, ptr %4, i64 %.039.i
  %55 = load double, ptr %54, align 16, !tbaa !76
  %56 = fadd double %.sroa.014.0.copyload.i, %55
  %57 = fmul double %38, %56
  store double %57, ptr %54, align 16, !tbaa !76
  %58 = getelementptr inbounds nuw i8, ptr %54, i64 8
  %59 = load double, ptr %58, align 8, !tbaa !75
  %60 = fadd double %.sroa.516.0.copyload.i, %59
  %61 = fmul double %41, %60
  store double %61, ptr %58, align 8, !tbaa !75
  %62 = add nuw nsw i64 %.039.i, 1
  %exitcond44.not.i = icmp eq i64 %62, 2
  br i1 %exitcond44.not.i, label %gvrender_ptf_A.exit, label %.lr.ph40.i, !llvm.loop !79

gvrender_ptf_A.exit:                              ; preds = %.lr.ph.i, %.lr.ph40.i, %15
  call void %9(ptr noundef %0, ptr noundef nonnull %4, i32 noundef %2) #22
  call void @llvm.lifetime.end.p0(i64 32, ptr nonnull %4) #22
  br label %63

63:                                               ; preds = %7, %10, %gvrender_ptf_A.exit, %3
  ret void
}